Certificate:
    Data:
        Version: 3 (0x2)
        Serial Number:
            a9:a4:30:90:50:3d:e3:24
    Signature Algorithm: sha1WithRSAEncryption
        Issuer: C=IT, ST=Italy, O=Polito, OU=Security, CN=Salvatore Cerruto/emailAddress=salvatorecerruto@gmail.com
        Validity
            Not Before: Feb  5 21:54:44 2014 GMT
            Not After : Feb  4 21:54:44 2017 GMT
        Subject: C=IT, ST=Italy, O=Polito, OU=Security, CN=Salvatore Cerruto/emailAddress=salvatorecerruto@gmail.com
        Subject Public Key Info:
            Public Key Algorithm: rsaEncryption
                Public-Key: (1024 bit)
                Modulus:
                    00:c1:fb:50:a7:7b:64:06:e9:21:e9:fc:39:c5:04:
                    8e:bf:27:81:93:af:e6:1d:75:22:3f:ea:fc:42:ca:
                    6d:89:ee:65:d4:f6:4a:8e:3c:aa:4f:a1:13:70:13:
                    1e:ca:ea:84:63:73:b4:14:db:e4:5a:50:b6:af:98:
                    30:47:18:5f:1a:a2:f3:63:1e:51:60:ac:b7:ee:39:
                    79:dd:cc:03:6d:a8:2b:c3:6b:c9:a0:bc:e3:59:1f:
                    d6:eb:1c:86:a4:06:1f:3a:4f:d2:33:06:a2:36:80:
                    f1:3b:8b:d4:16:fd:7b:2b:a4:f4:24:43:1d:9e:32:
                    f2:73:ce:19:1e:df:39:21:ef
                Exponent: 65537 (0x10001)
        X509v3 extensions:
            X509v3 Subject Key Identifier: 
                02:C4:9B:19:22:19:9A:5F:7F:79:5C:79:11:90:85:78:01:42:D7:4C
            X509v3 Authority Key Identifier: 
                keyid:02:C4:9B:19:22:19:9A:5F:7F:79:5C:79:11:90:85:78:01:42:D7:4C

            X509v3 Basic Constraints: 
                CA:TRUE
    Signature Algorithm: sha1WithRSAEncryption
         31:4d:47:1e:70:b0:c3:ff:0c:0f:4c:23:87:d4:59:9e:47:3b:
         bf:39:4f:69:95:5a:38:b1:25:36:bc:10:81:99:41:a4:1a:4f:
         03:1a:53:7d:2d:8b:05:4e:e4:2f:9c:00:3f:6d:4e:46:b7:f7:
         5b:df:c0:b8:9d:26:c1:fb:1f:61:fc:b7:a3:11:d9:2f:9d:e7:
         2e:45:33:08:f3:32:d3:5b:d7:bf:2e:2e:cd:1b:ca:fb:a3:1e:
         0b:e1:89:a0:c7:67:ce:94:f0:64:a5:42:39:aa:09:87:10:46:
         aa:26:d1:ea:57:03:08:b6:27:b5:98:4f:f1:03:02:de:d3:35:
         36:03
-----BEGIN CERTIFICATE-----
MIIC4DCCAkmgAwIBAgIJAKmkMJBQPeMkMA0GCSqGSIb3DQEBBQUAMIGIMQswCQYD
VQQGEwJJVDEOMAwGA1UECAwFSXRhbHkxDzANBgNVBAoMBlBvbGl0bzERMA8GA1UE
CwwIU2VjdXJpdHkxGjAYBgNVBAMMEVNhbHZhdG9yZSBDZXJydXRvMSkwJwYJKoZI
hvcNAQkBFhpzYWx2YXRvcmVjZXJydXRvQGdtYWlsLmNvbTAeFw0xNDAyMDUyMTU0
NDRaFw0xNzAyMDQyMTU0NDRaMIGIMQswCQYDVQQGEwJJVDEOMAwGA1UECAwFSXRh
bHkxDzANBgNVBAoMBlBvbGl0bzERMA8GA1UECwwIU2VjdXJpdHkxGjAYBgNVBAMM
EVNhbHZhdG9yZSBDZXJydXRvMSkwJwYJKoZIhvcNAQkBFhpzYWx2YXRvcmVjZXJy
dXRvQGdtYWlsLmNvbTCBnzANBgkqhkiG9w0BAQEFAAOBjQAwgYkCgYEAwftQp3tk
Bukh6fw5xQSOvyeBk6/mHXUiP+r8Qsptie5l1PZKjjyqT6ETcBMeyuqEY3O0FNvk
WlC2r5gwRxhfGqLzYx5RYKy37jl53cwDbagrw2vJoLzjWR/W6xyGpAYfOk/SMwai
NoDxO4vUFv17K6T0JEMdnjLyc84ZHt85Ie8CAwEAAaNQME4wHQYDVR0OBBYEFALE
mxkiGZpff3lceRGQhXgBQtdMMB8GA1UdIwQYMBaAFALEmxkiGZpff3lceRGQhXgB
QtdMMAwGA1UdEwQFMAMBAf8wDQYJKoZIhvcNAQEFBQADgYEAMU1HHnCww/8MD0wj
h9RZnkc7vzlPaZVaOLElNrwQgZlBpBpPAxpTfS2LBU7kL5wAP21ORrf3W9/AuJ0m
wfsfYfy3oxHZL53nLkUzCPMy01vXvy4uzRvK+6MeC+GJoMdnzpTwZKVCOaoJhxBG
qibR6lcDCLYntZhP8QMC3tM1NgM=
-----END CERTIFICATE-----
