Certificate:
    Data:
        Version: 3 (0x2)
        Serial Number:
            a9:a4:30:90:50:3d:e3:26
    Signature Algorithm: sha1WithRSAEncryption
        Issuer: C=IT, ST=Italy, O=Polito, OU=Security, CN=Salvatore Cerruto/emailAddress=salvatorecerruto@gmail.com
        Validity
            Not Before: Feb 11 16:08:37 2014 GMT
            Not After : Feb 11 16:08:37 2015 GMT
        Subject: C=IT, ST=Italy, O=Polito, OU=Security, CN=nodocentrale/emailAddress=salvatorecerruto@gmail.com
        Subject Public Key Info:
            Public Key Algorithm: rsaEncryption
                Public-Key: (2048 bit)
                Modulus:
                    00:e2:54:e1:1e:15:17:e7:97:55:9b:7a:50:e7:b4:
                    96:66:00:28:29:a2:00:5d:38:06:40:10:ca:aa:da:
                    5e:ff:1f:85:67:c4:6a:5b:1f:c4:b9:e1:8a:cc:cf:
                    26:1e:94:a4:25:d5:a1:c7:83:fc:9f:bf:44:5e:ad:
                    bd:0a:bf:77:7e:f6:b6:7b:d6:94:fc:c2:73:31:4b:
                    64:69:82:ee:f7:47:8e:1c:7a:a5:30:70:9c:c5:1f:
                    30:ea:32:e0:10:c4:cb:84:27:b0:78:37:d2:bf:30:
                    ca:2e:24:bc:61:e4:93:7b:9b:cd:4b:3a:11:41:79:
                    11:cc:20:f8:e0:8e:6c:33:7a:3a:97:35:b5:87:9d:
                    43:7f:b4:24:ab:52:11:43:21:b1:fb:37:98:79:79:
                    c4:00:d1:16:7c:36:79:ff:53:d6:75:16:1e:d8:d2:
                    29:7c:d8:62:57:a7:3c:6c:7e:c8:f4:8e:1a:ad:be:
                    8d:09:35:60:07:70:37:2f:59:ad:06:c4:dc:ef:24:
                    36:d6:2b:d2:c7:a5:d1:43:51:00:1a:9d:3e:c9:53:
                    ea:97:65:89:3c:18:58:72:03:7c:3a:da:a7:20:ce:
                    63:d7:49:c3:b2:a8:33:8a:01:25:b8:3e:e8:c5:e2:
                    42:a1:7c:d2:93:d1:e5:37:7b:a9:cc:7b:38:7b:34:
                    ce:c9
                Exponent: 65537 (0x10001)
        X509v3 extensions:
            X509v3 Basic Constraints: 
                CA:FALSE
            Netscape Comment: 
                OpenSSL Generated Certificate
            X509v3 Subject Key Identifier: 
                56:D3:E9:75:37:52:4D:47:85:24:1D:26:9F:5F:43:80:E8:13:BF:CD
            X509v3 Authority Key Identifier: 
                keyid:02:C4:9B:19:22:19:9A:5F:7F:79:5C:79:11:90:85:78:01:42:D7:4C

    Signature Algorithm: sha1WithRSAEncryption
         65:7c:dc:e2:55:6d:b8:41:93:e8:cc:ce:d8:38:10:cc:e7:e5:
         32:fd:3d:39:28:cd:23:92:fa:a4:6f:a8:55:02:d0:fb:aa:84:
         21:b2:8c:45:76:23:45:73:57:26:f2:be:32:6d:fe:e4:23:ed:
         01:43:c7:95:f4:84:6a:52:bc:35:6a:98:44:15:37:7c:76:b1:
         b5:57:81:7e:a3:e2:4c:31:61:dd:13:3f:3f:f0:97:68:87:1f:
         5f:5e:3b:d3:cb:75:c5:9f:4a:74:f0:e7:63:a0:a5:5b:d8:3e:
         6c:9c:6c:5f:b0:f9:bc:d3:f5:04:f7:01:ed:0b:ed:5a:2d:da:
         56:61
-----BEGIN CERTIFICATE-----
MIIDijCCAvOgAwIBAgIJAKmkMJBQPeMmMA0GCSqGSIb3DQEBBQUAMIGIMQswCQYD
VQQGEwJJVDEOMAwGA1UECAwFSXRhbHkxDzANBgNVBAoMBlBvbGl0bzERMA8GA1UE
CwwIU2VjdXJpdHkxGjAYBgNVBAMMEVNhbHZhdG9yZSBDZXJydXRvMSkwJwYJKoZI
hvcNAQkBFhpzYWx2YXRvcmVjZXJydXRvQGdtYWlsLmNvbTAeFw0xNDAyMTExNjA4
MzdaFw0xNTAyMTExNjA4MzdaMIGDMQswCQYDVQQGEwJJVDEOMAwGA1UECAwFSXRh
bHkxDzANBgNVBAoMBlBvbGl0bzERMA8GA1UECwwIU2VjdXJpdHkxFTATBgNVBAMM
DG5vZG9jZW50cmFsZTEpMCcGCSqGSIb3DQEJARYac2FsdmF0b3JlY2VycnV0b0Bn
bWFpbC5jb20wggEiMA0GCSqGSIb3DQEBAQUAA4IBDwAwggEKAoIBAQDiVOEeFRfn
l1WbelDntJZmACgpogBdOAZAEMqq2l7/H4VnxGpbH8S54YrMzyYelKQl1aHHg/yf
v0Rerb0Kv3d+9rZ71pT8wnMxS2Rpgu73R44ceqUwcJzFHzDqMuAQxMuEJ7B4N9K/
MMouJLxh5JN7m81LOhFBeRHMIPjgjmwzejqXNbWHnUN/tCSrUhFDIbH7N5h5ecQA
0RZ8Nnn/U9Z1Fh7Y0il82GJXpzxsfsj0jhqtvo0JNWAHcDcvWa0GxNzvJDbWK9LH
pdFDUQAanT7JU+qXZYk8GFhyA3w62qcgzmPXScOyqDOKASW4PujF4kKhfNKT0eU3
e6nMezh7NM7JAgMBAAGjezB5MAkGA1UdEwQCMAAwLAYJYIZIAYb4QgENBB8WHU9w
ZW5TU0wgR2VuZXJhdGVkIENlcnRpZmljYXRlMB0GA1UdDgQWBBRW0+l1N1JNR4Uk
HSafX0OA6BO/zTAfBgNVHSMEGDAWgBQCxJsZIhmaX395XHkRkIV4AULXTDANBgkq
hkiG9w0BAQUFAAOBgQBlfNziVW24QZPozM7YOBDM5+Uy/T05KM0jkvqkb6hVAtD7
qoQhsoxFdiNFc1cm8r4ybf7kI+0BQ8eV9IRqUrw1aphEFTd8drG1V4F+o+JMMWHd
Ez8/8Jdohx9fXjvTy3XFn0p08OdjoKVb2D5snGxfsPm80/UE9wHtC+1aLdpWYQ==
-----END CERTIFICATE-----
